; Function Attrs: mustprogress uwtable
define void @_ZN19OpenColorIO_v2_5dev13LookTransform8setLooksEPKc(ptr noundef nonnull readonly align 8 captures(none) dereferenceable(16) %0, ptr noundef %1) local_unnamed_addr #0 align 2 {
  %.not = icmp eq ptr %1, null
  %3 = select i1 %.not, ptr @.str.3, ptr %1
  %4 = getelementptr inbounds nuw i8, ptr %0, i64 8
  %5 = load ptr, ptr %4, align 8, !tbaa !34
  %6 = getelementptr inbounds nuw i8, ptr %5, i64 72
  %7 = getelementptr inbounds nuw i8, ptr %5, i64 80
  %8 = load i64, ptr %7, align 8, !tbaa !32
  %9 = tail call noundef i64 @strlen(ptr noundef nonnull dereferenceable(1) %3) #23
  %10 = tail call noundef nonnull align 8 dereferenceable(32) ptr @_ZNSt7__cxx1112basic_stringIcSt11char_traitsIcESaIcEE10_M_replaceEmmPKcm(ptr noundef nonnull align 8 dereferenceable(32) %6, i64 noundef 0, i64 noundef %8, ptr noundef nonnull %3, i64 noundef %9)
  ret void
}